target datalayout = "e-m:e-p270:32:32-p271:32:32-p272:64:64-i64:64-i128:128-f80:128-n8:16:32:64-S128"
target triple = "x86_64-pc-linux-gnu"

%struct.FT_StreamRec_ = type { ptr, i64, i64, %union.FT_StreamDesc_, %union.FT_StreamDesc_, ptr, ptr, ptr, ptr, ptr }
%union.FT_StreamDesc_ = type { i64 }
%struct.FT_LZWFileRec_ = type { ptr, ptr, ptr, %struct.FT_LzwStateRec_, [4096 x i8], i64, ptr, ptr }
%struct.FT_LzwStateRec_ = type { i32, i32, [16 x i8], i32, i32, i8, i64, i32, i32, i32, i32, i32, i32, i32, i32, i32, ptr, ptr, i32, ptr, i32, i64, [64 x i8], ptr, ptr }

; Function Attrs: nounwind uwtable
define hidden void @ft_lzwstate_reset(ptr noundef %0) #0 {
  %2 = alloca ptr, align 8
  store ptr %0, ptr %2, align 8, !tbaa !24
  %3 = load ptr, ptr %2, align 8, !tbaa !24
  %4 = getelementptr inbounds nuw %struct.FT_LzwStateRec_, ptr %3, i32 0, i32 1
  store i32 0, ptr %4, align 4, !tbaa !37
  %5 = load ptr, ptr %2, align 8, !tbaa !24
  %6 = getelementptr inbounds nuw %struct.FT_LzwStateRec_, ptr %5, i32 0, i32 3
  store i32 0, ptr %6, align 8, !tbaa !38
  %7 = load ptr, ptr %2, align 8, !tbaa !24
  %8 = getelementptr inbounds nuw %struct.FT_LzwStateRec_, ptr %7, i32 0, i32 4
  store i32 0, ptr %8, align 4, !tbaa !39
  %9 = load ptr, ptr %2, align 8, !tbaa !24
  %10 = getelementptr inbounds nuw %struct.FT_LzwStateRec_, ptr %9, i32 0, i32 5
  store i8 0, ptr %10, align 8, !tbaa !40
  %11 = load ptr, ptr %2, align 8, !tbaa !24
  %12 = getelementptr inbounds nuw %struct.FT_LzwStateRec_, ptr %11, i32 0, i32 6
  store i64 0, ptr %12, align 8, !tbaa !41
  %13 = load ptr, ptr %2, align 8, !tbaa !24
  %14 = getelementptr inbounds nuw %struct.FT_LzwStateRec_, ptr %13, i32 0, i32 20
  store i32 0, ptr %14, align 8, !tbaa !42
  %15 = load ptr, ptr %2, align 8, !tbaa !24
  %16 = getelementptr inbounds nuw %struct.FT_LzwStateRec_, ptr %15, i32 0, i32 10
  store i32 9, ptr %16, align 4, !tbaa !43
  %17 = load ptr, ptr %2, align 8, !tbaa !24
  %18 = getelementptr inbounds nuw %struct.FT_LzwStateRec_, ptr %17, i32 0, i32 0
  store i32 0, ptr %18, align 8, !tbaa !44
  ret void
}

; Function Attrs: nounwind uwtable
define hidden void @ft_lzwstate_done(ptr noundef %0) #0 {
  %2 = alloca ptr, align 8
  %3 = alloca ptr, align 8
  store ptr %0, ptr %2, align 8, !tbaa !24
  call void @llvm.lifetime.start.p0(i64 8, ptr %3) #5
  %4 = load ptr, ptr %2, align 8, !tbaa !24
  %5 = getelementptr inbounds nuw %struct.FT_LzwStateRec_, ptr %4, i32 0, i32 24
  %6 = load ptr, ptr %5, align 8, !tbaa !46
  store ptr %6, ptr %3, align 8, !tbaa !17
  %7 = load ptr, ptr %2, align 8, !tbaa !24
  call void @ft_lzwstate_reset(ptr noundef %7)
  %8 = load ptr, ptr %2, align 8, !tbaa !24
  %9 = getelementptr inbounds nuw %struct.FT_LzwStateRec_, ptr %8, i32 0, i32 19
  %10 = load ptr, ptr %9, align 8, !tbaa !50
  %11 = load ptr, ptr %2, align 8, !tbaa !24
  %12 = getelementptr inbounds nuw %struct.FT_LzwStateRec_, ptr %11, i32 0, i32 22
  %13 = getelementptr inbounds [64 x i8], ptr %12, i64 0, i64 0
  %14 = icmp ne ptr %10, %13
  br i1 %14, label %15, label %25

15:                                               ; preds = %1
  br label %16

16:                                               ; preds = %15
  %17 = load ptr, ptr %3, align 8, !tbaa !17
  %18 = load ptr, ptr %2, align 8, !tbaa !24
  %19 = getelementptr inbounds nuw %struct.FT_LzwStateRec_, ptr %18, i32 0, i32 19
  %20 = load ptr, ptr %19, align 8, !tbaa !50
  call void @ft_mem_free(ptr noundef %17, ptr noundef %20)
  %21 = load ptr, ptr %2, align 8, !tbaa !24
  %22 = getelementptr inbounds nuw %struct.FT_LzwStateRec_, ptr %21, i32 0, i32 19
  store ptr null, ptr %22, align 8, !tbaa !50
  br label %23

23:                                               ; preds = %16
  br label %24

24:                                               ; preds = %23
  br label %25

25:                                               ; preds = %24, %1
  br label %26

26:                                               ; preds = %25
  %27 = load ptr, ptr %3, align 8, !tbaa !17
  %28 = load ptr, ptr %2, align 8, !tbaa !24
  %29 = getelementptr inbounds nuw %struct.FT_LzwStateRec_, ptr %28, i32 0, i32 16
  %30 = load ptr, ptr %29, align 8, !tbaa !47
  call void @ft_mem_free(ptr noundef %27, ptr noundef %30)
  %31 = load ptr, ptr %2, align 8, !tbaa !24
  %32 = getelementptr inbounds nuw %struct.FT_LzwStateRec_, ptr %31, i32 0, i32 16
  store ptr null, ptr %32, align 8, !tbaa !47
  br label %33

33:                                               ; preds = %26
  br label %34

34:                                               ; preds = %33
  %35 = load ptr, ptr %2, align 8, !tbaa !24
  %36 = getelementptr inbounds nuw %struct.FT_LzwStateRec_, ptr %35, i32 0, i32 17
  store ptr null, ptr %36, align 8, !tbaa !48
  %37 = load ptr, ptr %2, align 8, !tbaa !24
  call void @llvm.memset.p0.i64(ptr align 8 %37, i8 0, i64 216, i1 false)
  call void @llvm.lifetime.end.p0(i64 8, ptr %3) #5
  ret void
}

; Function Attrs: nounwind uwtable
define internal void @ft_lzw_file_done(ptr noundef %0) #0 {
  %2 = alloca ptr, align 8
  store ptr %0, ptr %2, align 8, !tbaa !8
  %3 = load ptr, ptr %2, align 8, !tbaa !8
  %4 = getelementptr inbounds nuw %struct.FT_LZWFileRec_, ptr %3, i32 0, i32 3
  call void @ft_lzwstate_done(ptr noundef %4)
  %5 = load ptr, ptr %2, align 8, !tbaa !8
  %6 = getelementptr inbounds nuw %struct.FT_LZWFileRec_, ptr %5, i32 0, i32 2
  store ptr null, ptr %6, align 8, !tbaa !31
  %7 = load ptr, ptr %2, align 8, !tbaa !8
  %8 = getelementptr inbounds nuw %struct.FT_LZWFileRec_, ptr %7, i32 0, i32 0
  store ptr null, ptr %8, align 8, !tbaa !30
  %9 = load ptr, ptr %2, align 8, !tbaa !8
  %10 = getelementptr inbounds nuw %struct.FT_LZWFileRec_, ptr %9, i32 0, i32 1
  store ptr null, ptr %10, align 8, !tbaa !26
  ret void
}

; Function Attrs: nounwind uwtable
define internal void @ft_lzw_stream_close(ptr noundef %0) #0 {
  %2 = alloca ptr, align 8
  %3 = alloca ptr, align 8
  %4 = alloca ptr, align 8
  store ptr %0, ptr %2, align 8, !tbaa !3
  call void @llvm.lifetime.start.p0(i64 8, ptr %3) #5
  %5 = load ptr, ptr %2, align 8, !tbaa !3
  %6 = getelementptr inbounds nuw %struct.FT_StreamRec_, ptr %5, i32 0, i32 3
  %7 = load ptr, ptr %6, align 8, !tbaa !18
  store ptr %7, ptr %3, align 8, !tbaa !8
  call void @llvm.lifetime.start.p0(i64 8, ptr %4) #5
  %8 = load ptr, ptr %2, align 8, !tbaa !3
  %9 = getelementptr inbounds nuw %struct.FT_StreamRec_, ptr %8, i32 0, i32 7
  %10 = load ptr, ptr %9, align 8, !tbaa !12
  store ptr %10, ptr %4, align 8, !tbaa !17
  %11 = load ptr, ptr %3, align 8, !tbaa !8
  %12 = icmp ne ptr %11, null
  br i1 %12, label %13, label %22

13:                                               ; preds = %1
  %14 = load ptr, ptr %3, align 8, !tbaa !8
  call void @ft_lzw_file_done(ptr noundef %14)
  br label %15

15:                                               ; preds = %13
  %16 = load ptr, ptr %4, align 8, !tbaa !17
  %17 = load ptr, ptr %3, align 8, !tbaa !8
  call void @ft_mem_free(ptr noundef %16, ptr noundef %17)
  store ptr null, ptr %3, align 8, !tbaa !8
  br label %18

18:                                               ; preds = %15
  br label %19

19:                                               ; preds = %18
  %20 = load ptr, ptr %2, align 8, !tbaa !3
  %21 = getelementptr inbounds nuw %struct.FT_StreamRec_, ptr %20, i32 0, i32 3
  store ptr null, ptr %21, align 8, !tbaa !18
  br label %22

22:                                               ; preds = %19, %1
  call void @llvm.lifetime.end.p0(i64 8, ptr %4) #5
  call void @llvm.lifetime.end.p0(i64 8, ptr %3) #5
  ret void
}