; Function Attrs: nounwind uwtable
define internal void @ft_lzw_stream_close(ptr noundef captures(none) %0) #0 {
  %2 = getelementptr inbounds nuw i8, ptr %0, i64 24
  %3 = load ptr, ptr %2, align 8, !tbaa !11
  %.not = icmp eq ptr %3, null
  br i1 %.not, label %21, label %4

4:                                                ; preds = %1
  %5 = getelementptr inbounds nuw i8, ptr %0, i64 56
  %6 = load ptr, ptr %5, align 8, !tbaa !3
  %7 = getelementptr inbounds nuw i8, ptr %3, i64 24
  %8 = getelementptr inbounds nuw i8, ptr %3, i64 232
  %9 = load ptr, ptr %8, align 8, !tbaa !25
  %10 = getelementptr inbounds nuw i8, ptr %3, i64 28
  store i32 0, ptr %10, align 4, !tbaa !34
  %11 = getelementptr inbounds nuw i8, ptr %3, i64 48
  %12 = getelementptr inbounds nuw i8, ptr %3, i64 64
  store i64 0, ptr %12, align 8, !tbaa !35
  %13 = getelementptr inbounds nuw i8, ptr %3, i64 144
  store i32 0, ptr %13, align 8, !tbaa !36
  %14 = getelementptr inbounds nuw i8, ptr %3, i64 84
  tail call void @llvm.memset.p0.i64(ptr noundef nonnull align 8 dereferenceable(9) %11, i8 0, i64 9, i1 false)
  store i32 9, ptr %14, align 4, !tbaa !28
  store i32 0, ptr %7, align 8, !tbaa !37
  %15 = getelementptr inbounds nuw i8, ptr %3, i64 136
  %16 = load ptr, ptr %15, align 8, !tbaa !26
  %17 = getelementptr inbounds nuw i8, ptr %3, i64 160
  %.not.i.i = icmp eq ptr %16, %17
  br i1 %.not.i.i, label %ft_lzw_file_done.exit, label %18

18:                                               ; preds = %4
  tail call void @ft_mem_free(ptr noundef %9, ptr noundef %16) #8
  store ptr null, ptr %15, align 8, !tbaa !26
  br label %ft_lzw_file_done.exit

ft_lzw_file_done.exit:                            ; preds = %4, %18
  %19 = getelementptr inbounds nuw i8, ptr %3, i64 112
  %20 = load ptr, ptr %19, align 8, !tbaa !38
  tail call void @ft_mem_free(ptr noundef %9, ptr noundef %20) #8
  tail call void @llvm.memset.p0.i64(ptr noundef nonnull align 8 dereferenceable(240) %3, i8 0, i64 240, i1 false)
  tail call void @ft_mem_free(ptr noundef %6, ptr noundef nonnull %3) #8
  store ptr null, ptr %2, align 8, !tbaa !11
  br label %21

21:                                               ; preds = %ft_lzw_file_done.exit, %1
  ret void
}